target datalayout = "e-m:e-p270:32:32-p271:32:32-p272:64:64-i64:64-i128:128-f80:128-n8:16:32:64-S128"
target triple = "x86_64-pc-linux-gnu"

; Function Attrs: nounwind uwtable
define dso_local i32 @slurm_init_msg_engine_ports(ptr noundef %0) #0 {
  %2 = alloca ptr, align 8
  %3 = alloca i32, align 4
  %4 = alloca i16, align 2
  store ptr %0, ptr %2, align 8
  call void @llvm.lifetime.start.p0(i64 4, ptr %3) #12
  call void @llvm.lifetime.start.p0(i64 2, ptr %4) #12
  %5 = load ptr, ptr %2, align 8
  %6 = call i32 @net_stream_listen_ports(ptr noundef %3, ptr noundef %4, ptr noundef %5, i1 noundef zeroext false)
  call void @llvm.lifetime.end.p0(i64 2, ptr %4) #12
  call void @llvm.lifetime.end.p0(i64 4, ptr %3) #12
  ret i32 %6
}