; Function Attrs: nounwind uwtable
define dso_local i32 @slurm_init_msg_engine_ports(ptr noundef %0) local_unnamed_addr #1 {
  %2 = alloca i32, align 4
  %3 = alloca i16, align 2
  call void @llvm.lifetime.start.p0(i64 4, ptr nonnull %2) #19
  call void @llvm.lifetime.start.p0(i64 2, ptr nonnull %3) #19
  %4 = call i32 @net_stream_listen_ports(ptr noundef nonnull %2, ptr noundef nonnull %3, ptr noundef %0, i1 noundef zeroext false) #19
  call void @llvm.lifetime.end.p0(i64 2, ptr nonnull %3) #19
  call void @llvm.lifetime.end.p0(i64 4, ptr nonnull %2) #19
  ret i32 %4
}